target datalayout = "e-m:e-p270:32:32-p271:32:32-p272:64:64-i64:64-i128:128-f80:128-n8:16:32:64-S128"
target triple = "x86_64-pc-linux-gnu"

@current_log_level = internal global i32 0, align 4

; Function Attrs: nounwind null_pointer_is_valid sspstrong uwtable
define i32 @ws_log_set_level(i32 noundef %0) #0 {
  %2 = alloca i32, align 4
  %3 = alloca i32, align 4
  store i32 %0, ptr %3, align 4
  %4 = load i32, ptr %3, align 4
  %5 = icmp ule i32 %4, 0
  br i1 %5, label %9, label %6

6:                                                ; preds = %1
  %7 = load i32, ptr %3, align 4
  %8 = icmp uge i32 %7, 9
  br i1 %8, label %9, label %10

9:                                                ; preds = %6, %1
  store i32 0, ptr %2, align 4
  br label %17

10:                                               ; preds = %6
  %11 = load i32, ptr %3, align 4
  %12 = icmp ugt i32 %11, 6
  br i1 %12, label %13, label %14

13:                                               ; preds = %10
  store i32 6, ptr %3, align 4
  br label %14

14:                                               ; preds = %13, %10
  %15 = load i32, ptr %3, align 4
  store i32 %15, ptr @current_log_level, align 4
  %16 = load i32, ptr @current_log_level, align 4
  store i32 %16, ptr %2, align 4
  br label %17

17:                                               ; preds = %14, %9
  %18 = load i32, ptr %2, align 4
  ret i32 %18
}

; Function Attrs: null_pointer_is_valid sspstrong uwtable
define i32 @ws_log_set_level_str(ptr noundef %0) #1 {
  %2 = alloca ptr, align 8
  %3 = alloca i32, align 4
  store ptr %0, ptr %2, align 8
  call void @llvm.lifetime.start.p0(i64 4, ptr %3) #19
  %4 = load ptr, ptr %2, align 8
  %5 = call i32 @string_to_log_level(ptr noundef %4)
  store i32 %5, ptr %3, align 4
  %6 = load i32, ptr %3, align 4
  %7 = call i32 @ws_log_set_level(i32 noundef %6)
  call void @llvm.lifetime.end.p0(i64 4, ptr %3) #19
  ret i32 %7
}